; Function Attrs: mustprogress uwtable
define dso_local noundef i32 @_Z12luaopen_mathP9lua_State(ptr noundef %0) local_unnamed_addr #0 {
  %2 = ptrtoint ptr %0 to i64
  %3 = tail call i64 @time(ptr noundef null) #10
  %4 = xor i64 %3, %2
  %5 = tail call i64 @clock() #10
  %6 = xor i64 %4, %5
  %7 = getelementptr inbounds nuw i8, ptr %0, i64 24
  %8 = load ptr, ptr %7, align 8, !tbaa !4
  %9 = getelementptr inbounds nuw i8, ptr %8, i64 3248
  %10 = mul i64 %6, 6364136223846793005
  %11 = add i64 %10, 4151516850369407454
  store i64 %11, ptr %9, align 8, !tbaa !19
  tail call void @_Z13luaL_registerP9lua_StatePKcPK8luaL_Reg(ptr noundef %0, ptr noundef nonnull @.str.1, ptr noundef nonnull @_ZL7mathlib)
  tail call void @_Z14lua_pushnumberP9lua_Stated(ptr noundef %0, double noundef 0x400921FB54442D18)
  tail call void @_Z12lua_setfieldP9lua_StateiPKc(ptr noundef %0, i32 noundef -2, ptr noundef nonnull @.str.2)
  tail call void @_Z14lua_pushnumberP9lua_Stated(ptr noundef %0, double noundef 0x7FF0000000000000)
  tail call void @_Z12lua_setfieldP9lua_StateiPKc(ptr noundef %0, i32 noundef -2, ptr noundef nonnull @.str.3)
  %12 = load i8, ptr @_ZN5FFlag12LuauMathLerpE, align 8, !tbaa !21, !range !25, !noundef !26
  %13 = trunc nuw i8 %12 to i1
  br i1 %13, label %14, label %15

14:                                               ; preds = %1
  tail call void @_Z17lua_pushcclosurekP9lua_StatePFiS0_EPKciPFiS0_iE(ptr noundef nonnull %0, ptr noundef nonnull @_ZL9math_lerpP9lua_State, ptr noundef nonnull @.str.4, i32 noundef 0, ptr noundef null)
  tail call void @_Z12lua_setfieldP9lua_StateiPKc(ptr noundef nonnull %0, i32 noundef -2, ptr noundef nonnull @.str.4)
  br label %15

15:                                               ; preds = %14, %1
  ret i32 1
}